; Function Attrs: mustprogress nounwind uwtable
define dso_local void @_ZNK5clang4ento11FieldRegion11printPrettyERN4llvm11raw_ostreamE(ptr noundef nonnull align 8 dereferenceable(64) %0, ptr noundef nonnull align 8 dereferenceable(48) %1) unnamed_addr #3 align 2 {
  %3 = load ptr, ptr %0, align 8
  %4 = getelementptr inbounds i8, ptr %3, i64 64
  %5 = load ptr, ptr %4, align 8
  %6 = tail call noundef zeroext i1 %5(ptr noundef nonnull align 8 dereferenceable(64) %0) #20
  %7 = getelementptr inbounds nuw i8, ptr %1, i64 24
  %8 = load ptr, ptr %7, align 8
  %9 = getelementptr inbounds nuw i8, ptr %1, i64 32
  %10 = load ptr, ptr %9, align 8
  br i1 %6, label %11, label %29

11:                                               ; preds = %2
  %12 = icmp eq ptr %8, %10
  br i1 %12, label %13, label %15

13:                                               ; preds = %11
  %14 = tail call noundef nonnull align 8 dereferenceable(48) ptr @_ZN4llvm11raw_ostream5writeEPKcm(ptr noundef nonnull align 8 dereferenceable(48) %1, ptr noundef nonnull @.str.56, i64 noundef 1) #20
  br label %_ZN4llvm11raw_ostreamlsEPKc.exit

15:                                               ; preds = %11
  store i8 39, ptr %10, align 1
  %16 = load ptr, ptr %9, align 8
  %17 = getelementptr inbounds i8, ptr %16, i64 1
  store ptr %17, ptr %9, align 8
  br label %_ZN4llvm11raw_ostreamlsEPKc.exit

_ZN4llvm11raw_ostreamlsEPKc.exit:                 ; preds = %13, %15
  %18 = load ptr, ptr %0, align 8
  %19 = getelementptr inbounds i8, ptr %18, i64 72
  %20 = load ptr, ptr %19, align 8
  tail call void %20(ptr noundef nonnull align 8 dereferenceable(64) %0, ptr noundef nonnull align 8 dereferenceable(48) %1) #20
  %21 = load ptr, ptr %7, align 8
  %22 = load ptr, ptr %9, align 8
  %23 = icmp eq ptr %21, %22
  br i1 %23, label %24, label %26

24:                                               ; preds = %_ZN4llvm11raw_ostreamlsEPKc.exit
  %25 = tail call noundef nonnull align 8 dereferenceable(48) ptr @_ZN4llvm11raw_ostream5writeEPKcm(ptr noundef nonnull align 8 dereferenceable(48) %1, ptr noundef nonnull @.str.56, i64 noundef 1) #20
  br label %_ZN4llvm11raw_ostreamlsEPKc.exit7

26:                                               ; preds = %_ZN4llvm11raw_ostreamlsEPKc.exit
  store i8 39, ptr %22, align 1
  %27 = load ptr, ptr %9, align 8
  %28 = getelementptr inbounds i8, ptr %27, i64 1
  store ptr %28, ptr %9, align 8
  br label %_ZN4llvm11raw_ostreamlsEPKc.exit7

29:                                               ; preds = %2
  %30 = ptrtoint ptr %8 to i64
  %31 = ptrtoint ptr %10 to i64
  %32 = sub i64 %30, %31
  %33 = icmp ult i64 %32, 6
  br i1 %33, label %34, label %36

34:                                               ; preds = %29
  %35 = tail call noundef nonnull align 8 dereferenceable(48) ptr @_ZN4llvm11raw_ostream5writeEPKcm(ptr noundef nonnull align 8 dereferenceable(48) %1, ptr noundef nonnull @.str.57, i64 noundef 6) #20
  %.phi.trans.insert = getelementptr inbounds nuw i8, ptr %35, i64 32
  %.pre = load ptr, ptr %.phi.trans.insert, align 8
  br label %_ZN4llvm11raw_ostreamlsEPKc.exit10

36:                                               ; preds = %29
  tail call void @llvm.memcpy.p0.p0.i64(ptr noundef nonnull align 1 dereferenceable(6) %10, ptr noundef nonnull align 1 dereferenceable(6) @.str.57, i64 6, i1 false)
  %37 = load ptr, ptr %9, align 8
  %38 = getelementptr inbounds i8, ptr %37, i64 6
  store ptr %38, ptr %9, align 8
  br label %_ZN4llvm11raw_ostreamlsEPKc.exit10

_ZN4llvm11raw_ostreamlsEPKc.exit10:               ; preds = %34, %36
  %39 = phi ptr [ %.pre, %34 ], [ %38, %36 ]
  %.0.i.i9 = phi ptr [ %35, %34 ], [ %1, %36 ]
  %40 = getelementptr inbounds nuw i8, ptr %.0.i.i9, i64 24
  %41 = load ptr, ptr %40, align 8
  %42 = icmp eq ptr %41, %39
  br i1 %42, label %43, label %45

43:                                               ; preds = %_ZN4llvm11raw_ostreamlsEPKc.exit10
  %44 = tail call noundef nonnull align 8 dereferenceable(48) ptr @_ZN4llvm11raw_ostream5writeEPKcm(ptr noundef nonnull align 8 dereferenceable(48) %.0.i.i9, ptr noundef nonnull @.str.56, i64 noundef 1) #20
  br label %_ZN4llvm11raw_ostreamlsEPKc.exit13

45:                                               ; preds = %_ZN4llvm11raw_ostreamlsEPKc.exit10
  %46 = getelementptr inbounds nuw i8, ptr %.0.i.i9, i64 32
  store i8 39, ptr %39, align 1
  %47 = load ptr, ptr %46, align 8
  %48 = getelementptr inbounds i8, ptr %47, i64 1
  store ptr %48, ptr %46, align 8
  br label %_ZN4llvm11raw_ostreamlsEPKc.exit13

_ZN4llvm11raw_ostreamlsEPKc.exit13:               ; preds = %43, %45
  %.0.i.i12 = phi ptr [ %44, %43 ], [ %.0.i.i9, %45 ]
  %49 = load ptr, ptr %0, align 8
  %50 = getelementptr inbounds i8, ptr %49, i64 112
  %51 = load ptr, ptr %50, align 8
  %52 = tail call noundef nonnull ptr %51(ptr noundef nonnull align 8 dereferenceable(64) %0) #20
  %53 = getelementptr inbounds nuw i8, ptr %52, i64 40
  %54 = load i64, ptr %53, align 8
  %55 = and i64 %54, 7
  %56 = icmp ne i64 %55, 0
  %57 = and i64 %54, -8
  %.not2.i = icmp eq i64 %57, 0
  %.not.i = or i1 %56, %.not2.i
  br i1 %.not.i, label %_ZN4llvm11raw_ostreamlsENS_9StringRefE.exit, label %_ZNK5clang9NamedDecl7getNameEv.exit

_ZNK5clang9NamedDecl7getNameEv.exit:              ; preds = %_ZN4llvm11raw_ostreamlsEPKc.exit13
  %58 = inttoptr i64 %57 to ptr
  %59 = getelementptr inbounds nuw i8, ptr %58, i64 16
  %60 = load ptr, ptr %59, align 8
  %61 = getelementptr inbounds i8, ptr %60, i64 16
  %62 = load i64, ptr %60, align 8
  %63 = and i64 %62, 4294967295
  %64 = getelementptr inbounds nuw i8, ptr %.0.i.i12, i64 24
  %65 = load ptr, ptr %64, align 8
  %66 = getelementptr inbounds nuw i8, ptr %.0.i.i12, i64 32
  %67 = load ptr, ptr %66, align 8
  %68 = ptrtoint ptr %65 to i64
  %69 = ptrtoint ptr %67 to i64
  %70 = sub i64 %68, %69
  %71 = icmp ugt i64 %63, %70
  br i1 %71, label %72, label %74

72:                                               ; preds = %_ZNK5clang9NamedDecl7getNameEv.exit
  %73 = tail call noundef nonnull align 8 dereferenceable(48) ptr @_ZN4llvm11raw_ostream5writeEPKcm(ptr noundef nonnull align 8 dereferenceable(48) %.0.i.i12, ptr noundef nonnull %61, i64 noundef %63) #20
  br label %_ZN4llvm11raw_ostreamlsENS_9StringRefE.exit

74:                                               ; preds = %_ZNK5clang9NamedDecl7getNameEv.exit
  %.not.i14 = icmp eq i64 %63, 0
  br i1 %.not.i14, label %_ZN4llvm11raw_ostreamlsENS_9StringRefE.exit, label %75

75:                                               ; preds = %74
  tail call void @llvm.memcpy.p0.p0.i64(ptr align 1 %67, ptr nonnull align 1 %61, i64 %63, i1 false)
  %76 = load ptr, ptr %66, align 8
  %77 = getelementptr inbounds i8, ptr %76, i64 %63
  store ptr %77, ptr %66, align 8
  br label %_ZN4llvm11raw_ostreamlsENS_9StringRefE.exit

_ZN4llvm11raw_ostreamlsENS_9StringRefE.exit:      ; preds = %_ZN4llvm11raw_ostreamlsEPKc.exit13, %72, %74, %75
  %.0.i = phi ptr [ %73, %72 ], [ %.0.i.i12, %75 ], [ %.0.i.i12, %74 ], [ %.0.i.i12, %_ZN4llvm11raw_ostreamlsEPKc.exit13 ]
  %78 = getelementptr inbounds nuw i8, ptr %.0.i, i64 24
  %79 = load ptr, ptr %78, align 8
  %80 = getelementptr inbounds nuw i8, ptr %.0.i, i64 32
  %81 = load ptr, ptr %80, align 8
  %82 = icmp eq ptr %79, %81
  br i1 %82, label %83, label %85

83:                                               ; preds = %_ZN4llvm11raw_ostreamlsENS_9StringRefE.exit
  %84 = tail call noundef nonnull align 8 dereferenceable(48) ptr @_ZN4llvm11raw_ostream5writeEPKcm(ptr noundef nonnull align 8 dereferenceable(48) %.0.i, ptr noundef nonnull @.str.56, i64 noundef 1) #20
  br label %_ZN4llvm11raw_ostreamlsEPKc.exit7

85:                                               ; preds = %_ZN4llvm11raw_ostreamlsENS_9StringRefE.exit
  store i8 39, ptr %81, align 1
  %86 = load ptr, ptr %80, align 8
  %87 = getelementptr inbounds i8, ptr %86, i64 1
  store ptr %87, ptr %80, align 8
  br label %_ZN4llvm11raw_ostreamlsEPKc.exit7

_ZN4llvm11raw_ostreamlsEPKc.exit7:                ; preds = %85, %83, %26, %24
  ret void
}